(dp0
S'number_non_zeros'
p1
ccollections
OrderedDict
p2
((lp3
(lp4
S'sub-0025864_ses-1_dwi_desikan.gpickle'
p5
aI1169
aa(lp6
S'sub-0025864_ses-2_dwi_desikan.gpickle'
p7
aI1071
aa(lp8
S'sub-0025865_ses-1_dwi_desikan.gpickle'
p9
aI1026
aa(lp10
S'sub-0025865_ses-2_dwi_desikan.gpickle'
p11
aI967
aa(lp12
S'sub-0025866_ses-1_dwi_desikan.gpickle'
p13
aI1146
aa(lp14
S'sub-0025866_ses-2_dwi_desikan.gpickle'
p15
aI1109
aa(lp16
S'sub-0025867_ses-1_dwi_desikan.gpickle'
p17
aI971
aa(lp18
S'sub-0025867_ses-2_dwi_desikan.gpickle'
p19
aI1038
aa(lp20
S'sub-0025868_ses-1_dwi_desikan.gpickle'
p21
aI997
aa(lp22
S'sub-0025868_ses-2_dwi_desikan.gpickle'
p23
aI971
aa(lp24
S'sub-0025869_ses-1_dwi_desikan.gpickle'
p25
aI1072
aa(lp26
S'sub-0025869_ses-2_dwi_desikan.gpickle'
p27
aI1067
aa(lp28
S'sub-0025870_ses-1_dwi_desikan.gpickle'
p29
aI1091
aa(lp30
S'sub-0025870_ses-2_dwi_desikan.gpickle'
p31
aI1095
aa(lp32
S'sub-0025871_ses-1_dwi_desikan.gpickle'
p33
aI947
aa(lp34
S'sub-0025871_ses-2_dwi_desikan.gpickle'
p35
aI971
aa(lp36
S'sub-0025872_ses-1_dwi_desikan.gpickle'
p37
aI1164
aa(lp38
S'sub-0025872_ses-2_dwi_desikan.gpickle'
p39
aI1170
aa(lp40
S'sub-0025873_ses-1_dwi_desikan.gpickle'
p41
aI917
aa(lp42
S'sub-0025873_ses-2_dwi_desikan.gpickle'
p43
aI882
aa(lp44
S'sub-0025874_ses-1_dwi_desikan.gpickle'
p45
aI1098
aa(lp46
S'sub-0025874_ses-2_dwi_desikan.gpickle'
p47
aI1033
aa(lp48
S'sub-0025875_ses-1_dwi_desikan.gpickle'
p49
aI932
aa(lp50
S'sub-0025875_ses-2_dwi_desikan.gpickle'
p51
aI950
aa(lp52
S'sub-0025876_ses-1_dwi_desikan.gpickle'
p53
aI1128
aa(lp54
S'sub-0025876_ses-2_dwi_desikan.gpickle'
p55
aI1109
aa(lp56
S'sub-0025877_ses-1_dwi_desikan.gpickle'
p57
aI925
aa(lp58
S'sub-0025877_ses-2_dwi_desikan.gpickle'
p59
aI932
aa(lp60
S'sub-0025878_ses-1_dwi_desikan.gpickle'
p61
aI1006
aa(lp62
S'sub-0025878_ses-2_dwi_desikan.gpickle'
p63
aI1010
aa(lp64
S'sub-0025879_ses-1_dwi_desikan.gpickle'
p65
aI1294
aa(lp66
S'sub-0025879_ses-2_dwi_desikan.gpickle'
p67
aI1186
aa(lp68
S'sub-0025880_ses-1_dwi_desikan.gpickle'
p69
aI932
aa(lp70
S'sub-0025880_ses-2_dwi_desikan.gpickle'
p71
aI943
aa(lp72
S'sub-0025881_ses-1_dwi_desikan.gpickle'
p73
aI1091
aa(lp74
S'sub-0025881_ses-2_dwi_desikan.gpickle'
p75
aI1083
aa(lp76
S'sub-0025882_ses-1_dwi_desikan.gpickle'
p77
aI1103
aa(lp78
S'sub-0025882_ses-2_dwi_desikan.gpickle'
p79
aI1116
aa(lp80
S'sub-0025883_ses-1_dwi_desikan.gpickle'
p81
aI1037
aa(lp82
S'sub-0025883_ses-2_dwi_desikan.gpickle'
p83
aI934
aa(lp84
S'sub-0025884_ses-1_dwi_desikan.gpickle'
p85
aI957
aa(lp86
S'sub-0025884_ses-2_dwi_desikan.gpickle'
p87
aI984
aa(lp88
S'sub-0025885_ses-1_dwi_desikan.gpickle'
p89
aI1183
aa(lp90
S'sub-0025885_ses-2_dwi_desikan.gpickle'
p91
aI1021
aa(lp92
S'sub-0025886_ses-1_dwi_desikan.gpickle'
p93
aI959
aa(lp94
S'sub-0025886_ses-2_dwi_desikan.gpickle'
p95
aI979
aa(lp96
S'sub-0025887_ses-1_dwi_desikan.gpickle'
p97
aI1034
aa(lp98
S'sub-0025887_ses-2_dwi_desikan.gpickle'
p99
aI1012
aa(lp100
S'sub-0025888_ses-1_dwi_desikan.gpickle'
p101
aI1012
aa(lp102
S'sub-0025888_ses-2_dwi_desikan.gpickle'
p103
aI980
aa(lp104
S'sub-0025889_ses-1_dwi_desikan.gpickle'
p105
aI953
aa(lp106
S'sub-0025889_ses-2_dwi_desikan.gpickle'
p107
aI951
aa(lp108
S'sub-0025890_ses-1_dwi_desikan.gpickle'
p109
aI1063
aa(lp110
S'sub-0025890_ses-2_dwi_desikan.gpickle'
p111
aI1132
aa(lp112
S'sub-0025891_ses-1_dwi_desikan.gpickle'
p113
aI1069
aa(lp114
S'sub-0025891_ses-2_dwi_desikan.gpickle'
p115
aI1043
aa(lp116
S'sub-0025892_ses-1_dwi_desikan.gpickle'
p117
aI1258
aa(lp118
S'sub-0025892_ses-2_dwi_desikan.gpickle'
p119
aI1266
aa(lp120
S'sub-0025893_ses-1_dwi_desikan.gpickle'
p121
aI1069
aa(lp122
S'sub-0025893_ses-2_dwi_desikan.gpickle'
p123
aI1095
aa(lp124
S'sub-0025894_ses-1_dwi_desikan.gpickle'
p125
aI1001
aa(lp126
S'sub-0025894_ses-2_dwi_desikan.gpickle'
p127
aI1013
aa(lp128
S'sub-0025895_ses-1_dwi_desikan.gpickle'
p129
aI1031
aa(lp130
S'sub-0025895_ses-2_dwi_desikan.gpickle'
p131
aI1048
aa(lp132
S'sub-0025896_ses-1_dwi_desikan.gpickle'
p133
aI1094
aa(lp134
S'sub-0025896_ses-2_dwi_desikan.gpickle'
p135
aI1020
aa(lp136
S'sub-0025897_ses-1_dwi_desikan.gpickle'
p137
aI972
aa(lp138
S'sub-0025897_ses-2_dwi_desikan.gpickle'
p139
aI962
aa(lp140
S'sub-0025898_ses-1_dwi_desikan.gpickle'
p141
aI1097
aa(lp142
S'sub-0025898_ses-2_dwi_desikan.gpickle'
p143
aI1039
aa(lp144
S'sub-0025899_ses-1_dwi_desikan.gpickle'
p145
aI1068
aa(lp146
S'sub-0025899_ses-2_dwi_desikan.gpickle'
p147
aI1017
aa(lp148
S'sub-0025900_ses-1_dwi_desikan.gpickle'
p149
aI1102
aa(lp150
S'sub-0025900_ses-2_dwi_desikan.gpickle'
p151
aI1052
aa(lp152
S'sub-0025901_ses-1_dwi_desikan.gpickle'
p153
aI944
aa(lp154
S'sub-0025901_ses-2_dwi_desikan.gpickle'
p155
aI934
aa(lp156
S'sub-0025902_ses-1_dwi_desikan.gpickle'
p157
aI941
aa(lp158
S'sub-0025902_ses-2_dwi_desikan.gpickle'
p159
aI920
aa(lp160
S'sub-0025903_ses-1_dwi_desikan.gpickle'
p161
aI1100
aa(lp162
S'sub-0025903_ses-2_dwi_desikan.gpickle'
p163
aI1103
aa(lp164
S'sub-0025904_ses-1_dwi_desikan.gpickle'
p165
aI1085
aa(lp166
S'sub-0025904_ses-2_dwi_desikan.gpickle'
p167
aI1149
aa(lp168
S'sub-0025905_ses-1_dwi_desikan.gpickle'
p169
aI1008
aa(lp170
S'sub-0025905_ses-2_dwi_desikan.gpickle'
p171
aI979
aa(lp172
S'sub-0025906_ses-1_dwi_desikan.gpickle'
p173
aI919
aa(lp174
S'sub-0025906_ses-2_dwi_desikan.gpickle'
p175
aI984
aa(lp176
S'sub-0025907_ses-1_dwi_desikan.gpickle'
p177
aI1098
aa(lp178
S'sub-0025907_ses-2_dwi_desikan.gpickle'
p179
aI1039
aa(lp180
S'sub-0025908_ses-1_dwi_desikan.gpickle'
p181
aI958
aa(lp182
S'sub-0025908_ses-2_dwi_desikan.gpickle'
p183
aI992
aa(lp184
S'sub-0025909_ses-1_dwi_desikan.gpickle'
p185
aI1130
aa(lp186
S'sub-0025909_ses-2_dwi_desikan.gpickle'
p187
aI1192
aa(lp188
S'sub-0025910_ses-1_dwi_desikan.gpickle'
p189
aI960
aa(lp190
S'sub-0025910_ses-2_dwi_desikan.gpickle'
p191
aI923
aa(lp192
S'sub-0025911_ses-1_dwi_desikan.gpickle'
p193
aI1176
aa(lp194
S'sub-0025911_ses-2_dwi_desikan.gpickle'
p195
aI1209
aa(lp196
S'sub-0025912_ses-1_dwi_desikan.gpickle'
p197
aI963
aa(lp198
S'sub-0025912_ses-2_dwi_desikan.gpickle'
p199
aI981
aa(lp200
S'sub-0025913_ses-1_dwi_desikan.gpickle'
p201
aI917
aa(lp202
S'sub-0025913_ses-2_dwi_desikan.gpickle'
p203
aI555
aa(lp204
S'sub-0025914_ses-1_dwi_desikan.gpickle'
p205
aI1078
aa(lp206
S'sub-0025914_ses-2_dwi_desikan.gpickle'
p207
aI1062
aa(lp208
S'sub-0025915_ses-1_dwi_desikan.gpickle'
p209
aI1049
aa(lp210
S'sub-0025915_ses-2_dwi_desikan.gpickle'
p211
aI1089
aa(lp212
S'sub-0025916_ses-1_dwi_desikan.gpickle'
p213
aI1090
aa(lp214
S'sub-0025916_ses-2_dwi_desikan.gpickle'
p215
aI1090
aa(lp216
S'sub-0025917_ses-1_dwi_desikan.gpickle'
p217
aI971
aa(lp218
S'sub-0025917_ses-2_dwi_desikan.gpickle'
p219
aI973
aa(lp220
S'sub-0025918_ses-1_dwi_desikan.gpickle'
p221
aI999
aa(lp222
S'sub-0025918_ses-2_dwi_desikan.gpickle'
p223
aI998
aa(lp224
S'sub-0025919_ses-1_dwi_desikan.gpickle'
p225
aI1184
aa(lp226
S'sub-0025919_ses-2_dwi_desikan.gpickle'
p227
aI1146
aa(lp228
S'sub-0025920_ses-1_dwi_desikan.gpickle'
p229
aI1021
aa(lp230
S'sub-0025920_ses-2_dwi_desikan.gpickle'
p231
aI1065
aatp232
Rp233
s.